; ModuleID = '42/581.c'
source_filename = "42/581.c"
target datalayout = "e-m:e-p270:32:32-p271:32:32-p272:64:64-i64:64-f80:128-n8:16:32:64-S128"
target triple = "x86_64-pc-linux-gnu"

@.str = private unnamed_addr constant [3 x i8] c"%d\00", align 1
@.str.1 = private unnamed_addr constant [4 x i8] c"%d \00", align 1

; Function Attrs: noinline nounwind uwtable
define dso_local i32 @main() #0 {
  %1 = alloca i32, align 4
  %2 = alloca i32, align 4
  %3 = alloca [100000 x i32], align 16
  %4 = alloca i32, align 4
  %5 = alloca i32, align 4
  %6 = alloca i32, align 4
  %7 = alloca i32*, align 8
  %8 = alloca i32, align 4
  store i32 0, i32* %1, align 4
  store i32 0, i32* %8, align 4
  %9 = call i32 (i8*, ...) @__isoc99_scanf(i8* getelementptr inbounds ([3 x i8], [3 x i8]* @.str, i64 0, i64 0), i32* %2)
  store i32 0, i32* %5, align 4
  br label %10

10:                                               ; preds = %20, %0
  %11 = load i32, i32* %5, align 4
  %12 = load i32, i32* %2, align 4
  %13 = icmp slt i32 %11, %12
  br i1 %13, label %14, label %23

14:                                               ; preds = %10
  %15 = getelementptr inbounds [100000 x i32], [100000 x i32]* %3, i64 0, i64 0
  %16 = load i32, i32* %5, align 4
  %17 = sext i32 %16 to i64
  %18 = getelementptr inbounds i32, i32* %15, i64 %17
  %19 = call i32 (i8*, ...) @__isoc99_scanf(i8* getelementptr inbounds ([3 x i8], [3 x i8]* @.str, i64 0, i64 0), i32* %18)
  br label %20

20:                                               ; preds = %14
  %21 = load i32, i32* %5, align 4
  %22 = add nsw i32 %21, 1
  store i32 %22, i32* %5, align 4
  br label %10

23:                                               ; preds = %10
  %24 = call i32 (i8*, ...) @__isoc99_scanf(i8* getelementptr inbounds ([3 x i8], [3 x i8]* @.str, i64 0, i64 0), i32* %4)
  store i32 0, i32* %5, align 4
  br label %25

25:                                               ; preds = %67, %23
  %26 = load i32, i32* %5, align 4
  %27 = load i32, i32* %2, align 4
  %28 = load i32, i32* %8, align 4
  %29 = sub nsw i32 %27, %28
  %30 = icmp slt i32 %26, %29
  br i1 %30, label %31, label %70

31:                                               ; preds = %25
  %32 = getelementptr inbounds [100000 x i32], [100000 x i32]* %3, i64 0, i64 0
  %33 = load i32, i32* %5, align 4
  %34 = sext i32 %33 to i64
  %35 = getelementptr inbounds i32, i32* %32, i64 %34
  %36 = load i32, i32* %35, align 4
  %37 = load i32, i32* %4, align 4
  %38 = icmp eq i32 %36, %37
  br i1 %38, label %39, label %66

39:                                               ; preds = %31
  %40 = load i32, i32* %5, align 4
  store i32 %40, i32* %6, align 4
  br label %41

41:                                               ; preds = %58, %39
  %42 = load i32, i32* %6, align 4
  %43 = load i32, i32* %2, align 4
  %44 = load i32, i32* %8, align 4
  %45 = sub nsw i32 %43, %44
  %46 = icmp slt i32 %42, %45
  br i1 %46, label %47, label %61

47:                                               ; preds = %41
  %48 = getelementptr inbounds [100000 x i32], [100000 x i32]* %3, i64 0, i64 0
  %49 = load i32, i32* %6, align 4
  %50 = sext i32 %49 to i64
  %51 = getelementptr inbounds i32, i32* %48, i64 %50
  %52 = getelementptr inbounds i32, i32* %51, i64 1
  %53 = load i32, i32* %52, align 4
  %54 = getelementptr inbounds [100000 x i32], [100000 x i32]* %3, i64 0, i64 0
  %55 = load i32, i32* %6, align 4
  %56 = sext i32 %55 to i64
  %57 = getelementptr inbounds i32, i32* %54, i64 %56
  store i32 %53, i32* %57, align 4
  br label %58

58:                                               ; preds = %47
  %59 = load i32, i32* %6, align 4
  %60 = add nsw i32 %59, 1
  store i32 %60, i32* %6, align 4
  br label %41

61:                                               ; preds = %41
  %62 = load i32, i32* %8, align 4
  %63 = add nsw i32 %62, 1
  store i32 %63, i32* %8, align 4
  %64 = load i32, i32* %5, align 4
  %65 = add nsw i32 %64, -1
  store i32 %65, i32* %5, align 4
  br label %66

66:                                               ; preds = %61, %31
  br label %67

67:                                               ; preds = %66
  %68 = load i32, i32* %5, align 4
  %69 = add nsw i32 %68, 1
  store i32 %69, i32* %5, align 4
  br label %25

70:                                               ; preds = %25
  store i32 0, i32* %5, align 4
  br label %71

71:                                               ; preds = %85, %70
  %72 = load i32, i32* %5, align 4
  %73 = load i32, i32* %2, align 4
  %74 = load i32, i32* %8, align 4
  %75 = sub nsw i32 %73, %74
  %76 = sub nsw i32 %75, 1
  %77 = icmp slt i32 %72, %76
  br i1 %77, label %78, label %88

78:                                               ; preds = %71
  %79 = getelementptr inbounds [100000 x i32], [100000 x i32]* %3, i64 0, i64 0
  %80 = load i32, i32* %5, align 4
  %81 = sext i32 %80 to i64
  %82 = getelementptr inbounds i32, i32* %79, i64 %81
  %83 = load i32, i32* %82, align 4
  %84 = call i32 (i8*, ...) @printf(i8* getelementptr inbounds ([4 x i8], [4 x i8]* @.str.1, i64 0, i64 0), i32 %83)
  br label %85

85:                                               ; preds = %78
  %86 = load i32, i32* %5, align 4
  %87 = add nsw i32 %86, 1
  store i32 %87, i32* %5, align 4
  br label %71

88:                                               ; preds = %71
  %89 = getelementptr inbounds [100000 x i32], [100000 x i32]* %3, i64 0, i64 0
  %90 = load i32, i32* %5, align 4
  %91 = sext i32 %90 to i64
  %92 = getelementptr inbounds i32, i32* %89, i64 %91
  %93 = load i32, i32* %92, align 4
  %94 = call i32 (i8*, ...) @printf(i8* getelementptr inbounds ([3 x i8], [3 x i8]* @.str, i64 0, i64 0), i32 %93)
  %95 = load i32, i32* %1, align 4
  ret i32 %95
}

declare dso_local i32 @__isoc99_scanf(i8*, ...) #1

declare dso_local i32 @printf(i8*, ...) #1


!llvm.module.flags = !{!0}
!llvm.ident = !{!1}

!0 = !{i32 1, !"wchar_size", i32 4}
!1 = !{!"clang version 10.0.0-4ubuntu1 "}
